target datalayout = "e-m:e-p270:32:32-p271:32:32-p272:64:64-i64:64-i128:128-f80:128-n8:16:32:64-S128"
target triple = "x86_64-pc-linux-gnu"

%"class.llvm::FoldingSetBase::Node" = type { ptr }
%"class.(anonymous namespace)::EquivalenceClass" = type { %"class.llvm::FoldingSetBase::Node", i64 }
%"struct.std::equal_to" = type { i8 }
%"struct.std::less" = type { i8 }
%"class.llvm::ImutAVLTree.653" = type { ptr, ptr, ptr, ptr, ptr, i32, %"class.(anonymous namespace)::EquivalenceClass", i32, i32 }

; Function Attrs: mustprogress nounwind uwtable
define internal noundef zeroext i1 @_ZNK12_GLOBAL__N_116EquivalenceClassltERKS0_(ptr noundef nonnull align 8 dereferenceable(16) %0, ptr noundef nonnull align 8 dereferenceable(16) %1) #1 align 2 {
  %3 = alloca ptr, align 8
  %4 = alloca ptr, align 8
  store ptr %0, ptr %3, align 8
  store ptr %1, ptr %4, align 8
  %5 = load ptr, ptr %3, align 8
  %6 = getelementptr inbounds nuw %"class.(anonymous namespace)::EquivalenceClass", ptr %5, i32 0, i32 1
  %7 = load i64, ptr %6, align 8
  %8 = load ptr, ptr %4, align 8
  %9 = getelementptr inbounds nuw %"class.(anonymous namespace)::EquivalenceClass", ptr %8, i32 0, i32 1
  %10 = load i64, ptr %9, align 8
  %11 = icmp ult i64 %7, %10
  ret i1 %11
}

; Function Attrs: mustprogress nounwind uwtable
define internal noundef zeroext i1 @_ZNK12_GLOBAL__N_116EquivalenceClasseqERKS0_(ptr noundef nonnull align 8 dereferenceable(16) %0, ptr noundef nonnull align 8 dereferenceable(16) %1) #1 align 2 {
  %3 = alloca ptr, align 8
  %4 = alloca ptr, align 8
  store ptr %0, ptr %3, align 8
  store ptr %1, ptr %4, align 8
  %5 = load ptr, ptr %3, align 8
  %6 = getelementptr inbounds nuw %"class.(anonymous namespace)::EquivalenceClass", ptr %5, i32 0, i32 1
  %7 = load i64, ptr %6, align 8
  %8 = load ptr, ptr %4, align 8
  %9 = getelementptr inbounds nuw %"class.(anonymous namespace)::EquivalenceClass", ptr %8, i32 0, i32 1
  %10 = load i64, ptr %9, align 8
  %11 = icmp eq i64 %7, %10
  ret i1 %11
}

; Function Attrs: mustprogress nounwind uwtable
define internal noundef zeroext i1 @_ZNKSt4lessIKN12_GLOBAL__N_116EquivalenceClassEEclERS2_S4_(ptr noundef nonnull align 1 dereferenceable(1) %0, ptr noundef nonnull align 8 dereferenceable(16) %1, ptr noundef nonnull align 8 dereferenceable(16) %2) #1 align 2 {
  %4 = alloca ptr, align 8
  %5 = alloca ptr, align 8
  %6 = alloca ptr, align 8
  store ptr %0, ptr %4, align 8
  store ptr %1, ptr %5, align 8
  store ptr %2, ptr %6, align 8
  %7 = load ptr, ptr %5, align 8
  %8 = load ptr, ptr %6, align 8
  %9 = call noundef zeroext i1 @_ZNK12_GLOBAL__N_116EquivalenceClassltERKS0_(ptr noundef nonnull align 8 dereferenceable(16) %7, ptr noundef nonnull align 8 dereferenceable(16) %8)
  ret i1 %9
}

; Function Attrs: mustprogress nounwind uwtable
define internal noundef ptr @_ZNK4llvm11ImutAVLTreeINS_17ImutContainerInfoIN12_GLOBAL__N_116EquivalenceClassEEEE8getRightEv(ptr noundef nonnull align 8 dereferenceable(72) %0) #1 align 2 {
  %2 = alloca ptr, align 8
  store ptr %0, ptr %2, align 8
  %3 = load ptr, ptr %2, align 8
  %4 = getelementptr inbounds nuw %"class.llvm::ImutAVLTree.653", ptr %3, i32 0, i32 2
  %5 = load ptr, ptr %4, align 8
  ret ptr %5
}

; Function Attrs: mustprogress nounwind uwtable
define internal noundef ptr @_ZNK4llvm11ImutAVLTreeINS_17ImutContainerInfoIN12_GLOBAL__N_116EquivalenceClassEEEE7getLeftEv(ptr noundef nonnull align 8 dereferenceable(72) %0) #1 align 2 {
  %2 = alloca ptr, align 8
  store ptr %0, ptr %2, align 8
  %3 = load ptr, ptr %2, align 8
  %4 = getelementptr inbounds nuw %"class.llvm::ImutAVLTree.653", ptr %3, i32 0, i32 1
  %5 = load ptr, ptr %4, align 8
  ret ptr %5
}

; Function Attrs: mustprogress nounwind uwtable
define internal noundef zeroext i1 @_ZNKSt8equal_toIKN12_GLOBAL__N_116EquivalenceClassEEclERS2_S4_(ptr noundef nonnull align 1 dereferenceable(1) %0, ptr noundef nonnull align 8 dereferenceable(16) %1, ptr noundef nonnull align 8 dereferenceable(16) %2) #1 align 2 {
  %4 = alloca ptr, align 8
  %5 = alloca ptr, align 8
  %6 = alloca ptr, align 8
  store ptr %0, ptr %4, align 8
  store ptr %1, ptr %5, align 8
  store ptr %2, ptr %6, align 8
  %7 = load ptr, ptr %5, align 8
  %8 = load ptr, ptr %6, align 8
  %9 = call noundef zeroext i1 @_ZNK12_GLOBAL__N_116EquivalenceClasseqERKS0_(ptr noundef nonnull align 8 dereferenceable(16) %7, ptr noundef nonnull align 8 dereferenceable(16) %8)
  ret i1 %9
}

; Function Attrs: mustprogress nounwind uwtable
define internal noundef zeroext i1 @_ZN4llvm17ImutContainerInfoIN12_GLOBAL__N_116EquivalenceClassEE6isLessERKS2_S5_(ptr noundef nonnull align 8 dereferenceable(16) %0, ptr noundef nonnull align 8 dereferenceable(16) %1) #1 align 2 {
  %3 = alloca ptr, align 8
  %4 = alloca ptr, align 8
  %5 = alloca %"struct.std::less", align 1
  store ptr %0, ptr %3, align 8
  store ptr %1, ptr %4, align 8
  %6 = load ptr, ptr %3, align 8
  %7 = load ptr, ptr %4, align 8
  %8 = call noundef zeroext i1 @_ZNKSt4lessIKN12_GLOBAL__N_116EquivalenceClassEEclERS2_S4_(ptr noundef nonnull align 1 dereferenceable(1) %5, ptr noundef nonnull align 8 dereferenceable(16) %6, ptr noundef nonnull align 8 dereferenceable(16) %7)
  ret i1 %8
}

; Function Attrs: mustprogress nounwind uwtable
define internal noundef ptr @_ZNK4llvm14ImutAVLFactoryINS_17ImutContainerInfoIN12_GLOBAL__N_116EquivalenceClassEEEE8getRightEPNS_11ImutAVLTreeIS4_EE(ptr noundef nonnull align 8 dereferenceable(80) %0, ptr noundef %1) #1 align 2 {
  %3 = alloca ptr, align 8
  %4 = alloca ptr, align 8
  store ptr %0, ptr %3, align 8
  store ptr %1, ptr %4, align 8
  %5 = load ptr, ptr %4, align 8
  %6 = call noundef ptr @_ZNK4llvm11ImutAVLTreeINS_17ImutContainerInfoIN12_GLOBAL__N_116EquivalenceClassEEEE8getRightEv(ptr noundef nonnull align 8 dereferenceable(72) %5)
  ret ptr %6
}

; Function Attrs: mustprogress nounwind uwtable
define internal noundef ptr @_ZNK4llvm14ImutAVLFactoryINS_17ImutContainerInfoIN12_GLOBAL__N_116EquivalenceClassEEEE7getLeftEPNS_11ImutAVLTreeIS4_EE(ptr noundef nonnull align 8 dereferenceable(80) %0, ptr noundef %1) #1 align 2 {
  %3 = alloca ptr, align 8
  %4 = alloca ptr, align 8
  store ptr %0, ptr %3, align 8
  store ptr %1, ptr %4, align 8
  %5 = load ptr, ptr %4, align 8
  %6 = call noundef ptr @_ZNK4llvm11ImutAVLTreeINS_17ImutContainerInfoIN12_GLOBAL__N_116EquivalenceClassEEEE7getLeftEv(ptr noundef nonnull align 8 dereferenceable(72) %5)
  ret ptr %6
}

; Function Attrs: mustprogress nounwind uwtable
define internal noundef zeroext i1 @_ZN4llvm17ImutContainerInfoIN12_GLOBAL__N_116EquivalenceClassEE7isEqualERKS2_S5_(ptr noundef nonnull align 8 dereferenceable(16) %0, ptr noundef nonnull align 8 dereferenceable(16) %1) #1 align 2 {
  %3 = alloca ptr, align 8
  %4 = alloca ptr, align 8
  %5 = alloca %"struct.std::equal_to", align 1
  store ptr %0, ptr %3, align 8
  store ptr %1, ptr %4, align 8
  %6 = load ptr, ptr %3, align 8
  %7 = load ptr, ptr %4, align 8
  %8 = call noundef zeroext i1 @_ZNKSt8equal_toIKN12_GLOBAL__N_116EquivalenceClassEEclERS2_S4_(ptr noundef nonnull align 1 dereferenceable(1) %5, ptr noundef nonnull align 8 dereferenceable(16) %6, ptr noundef nonnull align 8 dereferenceable(16) %7)
  ret i1 %8
}

; Function Attrs: mustprogress nounwind uwtable
define internal noundef nonnull align 8 dereferenceable(16) ptr @_ZNK4llvm14ImutAVLFactoryINS_17ImutContainerInfoIN12_GLOBAL__N_116EquivalenceClassEEEE8getValueEPNS_11ImutAVLTreeIS4_EE(ptr noundef nonnull align 8 dereferenceable(80) %0, ptr noundef %1) #1 align 2 {
  %3 = alloca ptr, align 8
  %4 = alloca ptr, align 8
  store ptr %0, ptr %3, align 8
  store ptr %1, ptr %4, align 8
  %5 = load ptr, ptr %4, align 8
  %6 = getelementptr inbounds nuw %"class.llvm::ImutAVLTree.653", ptr %5, i32 0, i32 6
  ret ptr %6
}

; Function Attrs: mustprogress nounwind uwtable
define internal noundef nonnull align 8 dereferenceable(16) ptr @_ZN4llvm17ImutContainerInfoIN12_GLOBAL__N_116EquivalenceClassEE10KeyOfValueERKS2_(ptr noundef nonnull align 8 dereferenceable(16) %0) #1 align 2 {
  %2 = alloca ptr, align 8
  store ptr %0, ptr %2, align 8
  %3 = load ptr, ptr %2, align 8
  ret ptr %3
}

; Function Attrs: mustprogress nounwind uwtable
define internal noundef zeroext i1 @_ZNK4llvm14ImutAVLFactoryINS_17ImutContainerInfoIN12_GLOBAL__N_116EquivalenceClassEEEE7isEmptyEPNS_11ImutAVLTreeIS4_EE(ptr noundef nonnull align 8 dereferenceable(80) %0, ptr noundef %1) #1 align 2 {
  %3 = alloca ptr, align 8
  %4 = alloca ptr, align 8
  store ptr %0, ptr %3, align 8
  store ptr %1, ptr %4, align 8
  %5 = load ptr, ptr %4, align 8
  %6 = icmp ne ptr %5, null
  %7 = xor i1 %6, true
  ret i1 %7
}

; Function Attrs: mustprogress nounwind uwtable
define internal noundef ptr @_ZN4llvm14ImutAVLFactoryINS_17ImutContainerInfoIN12_GLOBAL__N_116EquivalenceClassEEEE12add_internalERKS3_PNS_11ImutAVLTreeIS4_EE(ptr noundef nonnull align 8 dereferenceable(80) %0, ptr noundef nonnull align 8 dereferenceable(16) %1, ptr noundef %2) #1 align 2 {
  %4 = alloca ptr, align 8
  %5 = alloca ptr, align 8
  %6 = alloca ptr, align 8
  %7 = alloca ptr, align 8
  %8 = alloca ptr, align 8
  %9 = alloca ptr, align 8
  store ptr %0, ptr %5, align 8
  store ptr %1, ptr %6, align 8
  store ptr %2, ptr %7, align 8
  %10 = load ptr, ptr %5, align 8
  %11 = load ptr, ptr %7, align 8
  %12 = call noundef zeroext i1 @_ZNK4llvm14ImutAVLFactoryINS_17ImutContainerInfoIN12_GLOBAL__N_116EquivalenceClassEEEE7isEmptyEPNS_11ImutAVLTreeIS4_EE(ptr noundef nonnull align 8 dereferenceable(80) %10, ptr noundef %11)
  br i1 %12, label %13, label %18

13:                                               ; preds = %3
  %14 = load ptr, ptr %7, align 8
  %15 = load ptr, ptr %6, align 8
  %16 = load ptr, ptr %7, align 8
  %17 = call noundef ptr @_ZN4llvm14ImutAVLFactoryINS_17ImutContainerInfoIN12_GLOBAL__N_116EquivalenceClassEEEE10createNodeEPNS_11ImutAVLTreeIS4_EERKS3_S8_(ptr noundef nonnull align 8 dereferenceable(80) %10, ptr noundef %14, ptr noundef nonnull align 8 dereferenceable(16) %15, ptr noundef %16)
  store ptr %17, ptr %4, align 8
  br label %58

18:                                               ; preds = %3
  %19 = load ptr, ptr %6, align 8
  %20 = call noundef nonnull align 8 dereferenceable(16) ptr @_ZN4llvm17ImutContainerInfoIN12_GLOBAL__N_116EquivalenceClassEE10KeyOfValueERKS2_(ptr noundef nonnull align 8 dereferenceable(16) %19)
  store ptr %20, ptr %8, align 8
  %21 = load ptr, ptr %7, align 8
  %22 = call noundef nonnull align 8 dereferenceable(16) ptr @_ZNK4llvm14ImutAVLFactoryINS_17ImutContainerInfoIN12_GLOBAL__N_116EquivalenceClassEEEE8getValueEPNS_11ImutAVLTreeIS4_EE(ptr noundef nonnull align 8 dereferenceable(80) %10, ptr noundef %21)
  %23 = call noundef nonnull align 8 dereferenceable(16) ptr @_ZN4llvm17ImutContainerInfoIN12_GLOBAL__N_116EquivalenceClassEE10KeyOfValueERKS2_(ptr noundef nonnull align 8 dereferenceable(16) %22)
  store ptr %23, ptr %9, align 8
  %24 = load ptr, ptr %8, align 8
  %25 = load ptr, ptr %9, align 8
  %26 = call noundef zeroext i1 @_ZN4llvm17ImutContainerInfoIN12_GLOBAL__N_116EquivalenceClassEE7isEqualERKS2_S5_(ptr noundef nonnull align 8 dereferenceable(16) %24, ptr noundef nonnull align 8 dereferenceable(16) %25)
  br i1 %26, label %27, label %34

27:                                               ; preds = %18
  %28 = load ptr, ptr %7, align 8
  %29 = call noundef ptr @_ZNK4llvm14ImutAVLFactoryINS_17ImutContainerInfoIN12_GLOBAL__N_116EquivalenceClassEEEE7getLeftEPNS_11ImutAVLTreeIS4_EE(ptr noundef nonnull align 8 dereferenceable(80) %10, ptr noundef %28)
  %30 = load ptr, ptr %6, align 8
  %31 = load ptr, ptr %7, align 8
  %32 = call noundef ptr @_ZNK4llvm14ImutAVLFactoryINS_17ImutContainerInfoIN12_GLOBAL__N_116EquivalenceClassEEEE8getRightEPNS_11ImutAVLTreeIS4_EE(ptr noundef nonnull align 8 dereferenceable(80) %10, ptr noundef %31)
  %33 = call noundef ptr @_ZN4llvm14ImutAVLFactoryINS_17ImutContainerInfoIN12_GLOBAL__N_116EquivalenceClassEEEE10createNodeEPNS_11ImutAVLTreeIS4_EERKS3_S8_(ptr noundef nonnull align 8 dereferenceable(80) %10, ptr noundef %29, ptr noundef nonnull align 8 dereferenceable(16) %30, ptr noundef %32)
  store ptr %33, ptr %4, align 8
  br label %58

34:                                               ; preds = %18
  %35 = load ptr, ptr %8, align 8
  %36 = load ptr, ptr %9, align 8
  %37 = call noundef zeroext i1 @_ZN4llvm17ImutContainerInfoIN12_GLOBAL__N_116EquivalenceClassEE6isLessERKS2_S5_(ptr noundef nonnull align 8 dereferenceable(16) %35, ptr noundef nonnull align 8 dereferenceable(16) %36)
  br i1 %37, label %38, label %48

38:                                               ; preds = %34
  %39 = load ptr, ptr %6, align 8
  %40 = load ptr, ptr %7, align 8
  %41 = call noundef ptr @_ZNK4llvm14ImutAVLFactoryINS_17ImutContainerInfoIN12_GLOBAL__N_116EquivalenceClassEEEE7getLeftEPNS_11ImutAVLTreeIS4_EE(ptr noundef nonnull align 8 dereferenceable(80) %10, ptr noundef %40)
  %42 = call noundef ptr @_ZN4llvm14ImutAVLFactoryINS_17ImutContainerInfoIN12_GLOBAL__N_116EquivalenceClassEEEE12add_internalERKS3_PNS_11ImutAVLTreeIS4_EE(ptr noundef nonnull align 8 dereferenceable(80) %10, ptr noundef nonnull align 8 dereferenceable(16) %39, ptr noundef %41)
  %43 = load ptr, ptr %7, align 8
  %44 = call noundef nonnull align 8 dereferenceable(16) ptr @_ZNK4llvm14ImutAVLFactoryINS_17ImutContainerInfoIN12_GLOBAL__N_116EquivalenceClassEEEE8getValueEPNS_11ImutAVLTreeIS4_EE(ptr noundef nonnull align 8 dereferenceable(80) %10, ptr noundef %43)
  %45 = load ptr, ptr %7, align 8
  %46 = call noundef ptr @_ZNK4llvm14ImutAVLFactoryINS_17ImutContainerInfoIN12_GLOBAL__N_116EquivalenceClassEEEE8getRightEPNS_11ImutAVLTreeIS4_EE(ptr noundef nonnull align 8 dereferenceable(80) %10, ptr noundef %45)
  %47 = call noundef ptr @_ZN4llvm14ImutAVLFactoryINS_17ImutContainerInfoIN12_GLOBAL__N_116EquivalenceClassEEEE11balanceTreeEPNS_11ImutAVLTreeIS4_EERKS3_S8_(ptr noundef nonnull align 8 dereferenceable(80) %10, ptr noundef %42, ptr noundef nonnull align 8 dereferenceable(16) %44, ptr noundef %46)
  store ptr %47, ptr %4, align 8
  br label %58

48:                                               ; preds = %34
  %49 = load ptr, ptr %7, align 8
  %50 = call noundef ptr @_ZNK4llvm14ImutAVLFactoryINS_17ImutContainerInfoIN12_GLOBAL__N_116EquivalenceClassEEEE7getLeftEPNS_11ImutAVLTreeIS4_EE(ptr noundef nonnull align 8 dereferenceable(80) %10, ptr noundef %49)
  %51 = load ptr, ptr %7, align 8
  %52 = call noundef nonnull align 8 dereferenceable(16) ptr @_ZNK4llvm14ImutAVLFactoryINS_17ImutContainerInfoIN12_GLOBAL__N_116EquivalenceClassEEEE8getValueEPNS_11ImutAVLTreeIS4_EE(ptr noundef nonnull align 8 dereferenceable(80) %10, ptr noundef %51)
  %53 = load ptr, ptr %6, align 8
  %54 = load ptr, ptr %7, align 8
  %55 = call noundef ptr @_ZNK4llvm14ImutAVLFactoryINS_17ImutContainerInfoIN12_GLOBAL__N_116EquivalenceClassEEEE8getRightEPNS_11ImutAVLTreeIS4_EE(ptr noundef nonnull align 8 dereferenceable(80) %10, ptr noundef %54)
  %56 = call noundef ptr @_ZN4llvm14ImutAVLFactoryINS_17ImutContainerInfoIN12_GLOBAL__N_116EquivalenceClassEEEE12add_internalERKS3_PNS_11ImutAVLTreeIS4_EE(ptr noundef nonnull align 8 dereferenceable(80) %10, ptr noundef nonnull align 8 dereferenceable(16) %53, ptr noundef %55)
  %57 = call noundef ptr @_ZN4llvm14ImutAVLFactoryINS_17ImutContainerInfoIN12_GLOBAL__N_116EquivalenceClassEEEE11balanceTreeEPNS_11ImutAVLTreeIS4_EERKS3_S8_(ptr noundef nonnull align 8 dereferenceable(80) %10, ptr noundef %50, ptr noundef nonnull align 8 dereferenceable(16) %52, ptr noundef %56)
  store ptr %57, ptr %4, align 8
  br label %58

58:                                               ; preds = %48, %38, %27, %13
  %59 = load ptr, ptr %4, align 8
  ret ptr %59
}